target datalayout = "e-m:e-p270:32:32-p271:32:32-p272:64:64-i64:64-i128:128-f80:128-n8:16:32:64-S128"
target triple = "x86_64-pc-linux-gnu"

%union.pthread_mutex_t = type { %struct.__pthread_mutex_s }
%struct.__pthread_mutex_s = type { i32, i32, i32, i32, i32, i16, i16, %struct.__pthread_internal_list }
%struct.__pthread_internal_list = type { ptr, ptr }
%struct.jobacctinfo = type { i32, i64, i32, i64, i32, i32, %struct.acct_gather_energy, double, double, i32, i32, i32, ptr, ptr, ptr, ptr, ptr, ptr, ptr, ptr, ptr, ptr, ptr, ptr, ptr, ptr, ptr, ptr, %struct.jobacct_id_t, i32, double, double, i64, i64 }
%struct.acct_gather_energy = type { i32, i64, i64, i32, i64, i64, i64 }
%struct.jobacct_id_t = type { i32, i32, ptr }

@.str.1 = private unnamed_addr constant [29 x i8] c"%s: pthread_mutex_lock(): %m\00", align 1
@plugin_inited = internal global i32 0, align 4
@.str.3 = private unnamed_addr constant [31 x i8] c"%s: pthread_mutex_unlock(): %m\00", align 1
@jobacct_shutdown_mutex = internal global %union.pthread_mutex_t zeroinitializer, align 8
@jobacct_shutdown = internal global i8 1, align 1
@task_list = internal global ptr null, align 8
@task_list_lock = internal global %union.pthread_mutex_t zeroinitializer, align 8
@.str.19 = private unnamed_addr constant [22 x i8] c"no task list created!\00", align 1
@__func__.jobacct_gather_remove_task = private unnamed_addr constant [27 x i8] c"jobacct_gather_remove_task\00", align 1
@.str.21 = private unnamed_addr constant [37 x i8] c"removing task %u pid %d from jobacct\00", align 1
@.str.22 = private unnamed_addr constant [38 x i8] c"pid(%d) not being watched in jobacct!\00", align 1
@__func__._jobacct_shutdown_test = private unnamed_addr constant [23 x i8] c"_jobacct_shutdown_test\00", align 1

; Function Attrs: nounwind uwtable
define internal zeroext i1 @_jobacct_shutdown_test() #0 {
  %1 = alloca i8, align 1
  %2 = alloca i32, align 4
  %3 = alloca i32, align 4
  call void @llvm.lifetime.start.p0(i64 1, ptr %1) #8
  br label %4

4:                                                ; preds = %0
  call void @llvm.lifetime.start.p0(i64 4, ptr %2) #8
  %5 = call i32 @pthread_mutex_lock(ptr noundef @jobacct_shutdown_mutex) #8
  store i32 %5, ptr %2, align 4
  %6 = load i32, ptr %2, align 4
  %7 = icmp ne i32 %6, 0
  br i1 %7, label %8, label %11

8:                                                ; preds = %4
  %9 = load i32, ptr %2, align 4
  %10 = call ptr @__errno_location() #9
  store i32 %9, ptr %10, align 4
  call void (ptr, ...) @fatal_abort(ptr noundef @.str.1, ptr noundef @__func__._jobacct_shutdown_test) #10
  unreachable

11:                                               ; preds = %4
  call void @llvm.lifetime.end.p0(i64 4, ptr %2) #8
  br label %12

12:                                               ; preds = %11
  br label %13

13:                                               ; preds = %12
  %14 = load i8, ptr @jobacct_shutdown, align 1, !range !8, !noundef !9
  %15 = trunc i8 %14 to i1
  %16 = zext i1 %15 to i8
  store i8 %16, ptr %1, align 1
  br label %17

17:                                               ; preds = %13
  call void @llvm.lifetime.start.p0(i64 4, ptr %3) #8
  %18 = call i32 @pthread_mutex_unlock(ptr noundef @jobacct_shutdown_mutex) #8
  store i32 %18, ptr %3, align 4
  %19 = load i32, ptr %3, align 4
  %20 = icmp ne i32 %19, 0
  br i1 %20, label %21, label %24

21:                                               ; preds = %17
  %22 = load i32, ptr %3, align 4
  %23 = call ptr @__errno_location() #9
  store i32 %22, ptr %23, align 4
  call void (ptr, ...) @fatal_abort(ptr noundef @.str.3, ptr noundef @__func__._jobacct_shutdown_test) #10
  unreachable

24:                                               ; preds = %17
  call void @llvm.lifetime.end.p0(i64 4, ptr %3) #8
  br label %25

25:                                               ; preds = %24
  br label %26

26:                                               ; preds = %25
  %27 = load i8, ptr %1, align 1, !range !8, !noundef !9
  %28 = trunc i8 %27 to i1
  call void @llvm.lifetime.end.p0(i64 1, ptr %1) #8
  ret i1 %28
}

; Function Attrs: nounwind uwtable
define dso_local ptr @jobacct_gather_remove_task(i32 noundef %0) #0 {
  %2 = alloca ptr, align 8
  %3 = alloca i32, align 4
  %4 = alloca ptr, align 8
  %5 = alloca ptr, align 8
  %6 = alloca i32, align 4
  %7 = alloca i32, align 4
  %8 = alloca i32, align 4
  store i32 %0, ptr %3, align 4
  call void @llvm.lifetime.start.p0(i64 8, ptr %4) #8
  store ptr null, ptr %4, align 8
  call void @llvm.lifetime.start.p0(i64 8, ptr %5) #8
  store ptr null, ptr %5, align 8
  %9 = load i32, ptr @plugin_inited, align 4
  %10 = icmp eq i32 %9, 1
  br i1 %10, label %11, label %12

11:                                               ; preds = %1
  store ptr null, ptr %2, align 8
  store i32 1, ptr %6, align 4
  br label %101

12:                                               ; preds = %1
  call void @_poll_data(i1 noundef zeroext true)
  %13 = call zeroext i1 @_jobacct_shutdown_test()
  br i1 %13, label %14, label %15

14:                                               ; preds = %12
  store ptr null, ptr %2, align 8
  store i32 1, ptr %6, align 4
  br label %101

15:                                               ; preds = %12
  br label %16

16:                                               ; preds = %15
  call void @llvm.lifetime.start.p0(i64 4, ptr %7) #8
  %17 = call i32 @pthread_mutex_lock(ptr noundef @task_list_lock) #8
  store i32 %17, ptr %7, align 4
  %18 = load i32, ptr %7, align 4
  %19 = icmp ne i32 %18, 0
  br i1 %19, label %20, label %23

20:                                               ; preds = %16
  %21 = load i32, ptr %7, align 4
  %22 = call ptr @__errno_location() #9
  store i32 %21, ptr %22, align 4
  call void (ptr, ...) @fatal_abort(ptr noundef @.str.1, ptr noundef @__func__.jobacct_gather_remove_task) #10
  unreachable

23:                                               ; preds = %16
  call void @llvm.lifetime.end.p0(i64 4, ptr %7) #8
  br label %24

24:                                               ; preds = %23
  br label %25

25:                                               ; preds = %24
  %26 = load ptr, ptr @task_list, align 8
  %27 = icmp ne ptr %26, null
  br i1 %27, label %30, label %28

28:                                               ; preds = %25
  %29 = call i32 (ptr, ...) @error(ptr noundef @.str.19)
  br label %89

30:                                               ; preds = %25
  %31 = load ptr, ptr @task_list, align 8
  %32 = call ptr @list_iterator_create(ptr noundef %31)
  store ptr %32, ptr %5, align 8
  br label %33

33:                                               ; preds = %49, %30
  %34 = load ptr, ptr %5, align 8
  %35 = call ptr @list_next(ptr noundef %34)
  store ptr %35, ptr %4, align 8
  %36 = icmp ne ptr %35, null
  br i1 %36, label %37, label %50

37:                                               ; preds = %33
  %38 = load i32, ptr %3, align 4
  %39 = icmp ne i32 %38, 0
  br i1 %39, label %40, label %46

40:                                               ; preds = %37
  %41 = load ptr, ptr %4, align 8
  %42 = getelementptr inbounds nuw %struct.jobacctinfo, ptr %41, i32 0, i32 0
  %43 = load i32, ptr %42, align 8
  %44 = load i32, ptr %3, align 4
  %45 = icmp eq i32 %43, %44
  br i1 %45, label %46, label %49

46:                                               ; preds = %40, %37
  %47 = load ptr, ptr %5, align 8
  %48 = call ptr @list_remove(ptr noundef %47)
  br label %50

49:                                               ; preds = %40
  br label %33, !llvm.loop !15

50:                                               ; preds = %46, %33
  %51 = load ptr, ptr %5, align 8
  call void @list_iterator_destroy(ptr noundef %51)
  %52 = load ptr, ptr %4, align 8
  %53 = icmp ne ptr %52, null
  br i1 %53, label %54, label %72

54:                                               ; preds = %50
  br label %55

55:                                               ; preds = %54
  br label %56

56:                                               ; preds = %55
  %57 = call i32 @get_log_level()
  %58 = icmp sge i32 %57, 6
  br i1 %58, label %59, label %67

59:                                               ; preds = %56
  %60 = load ptr, ptr %4, align 8
  %61 = getelementptr inbounds nuw %struct.jobacctinfo, ptr %60, i32 0, i32 28
  %62 = getelementptr inbounds nuw %struct.jobacct_id_t, ptr %61, i32 0, i32 0
  %63 = load i32, ptr %62, align 8
  %64 = load ptr, ptr %4, align 8
  %65 = getelementptr inbounds nuw %struct.jobacctinfo, ptr %64, i32 0, i32 0
  %66 = load i32, ptr %65, align 8
  call void (i32, ptr, ...) @log_var(i32 noundef 6, ptr noundef @.str.21, i32 noundef %63, i32 noundef %66)
  br label %67

67:                                               ; preds = %59, %56
  br label %68

68:                                               ; preds = %67
  br label %69

69:                                               ; preds = %68
  br label %70

70:                                               ; preds = %69
  br label %71

71:                                               ; preds = %70
  br label %88

72:                                               ; preds = %50
  %73 = load i32, ptr %3, align 4
  %74 = icmp ne i32 %73, 0
  br i1 %74, label %75, label %87

75:                                               ; preds = %72
  br label %76

76:                                               ; preds = %75
  br label %77

77:                                               ; preds = %76
  %78 = call i32 @get_log_level()
  %79 = icmp sge i32 %78, 6
  br i1 %79, label %80, label %82

80:                                               ; preds = %77
  %81 = load i32, ptr %3, align 4
  call void (i32, ptr, ...) @log_var(i32 noundef 6, ptr noundef @.str.22, i32 noundef %81)
  br label %82

82:                                               ; preds = %80, %77
  br label %83

83:                                               ; preds = %82
  br label %84

84:                                               ; preds = %83
  br label %85

85:                                               ; preds = %84
  br label %86

86:                                               ; preds = %85
  br label %87

87:                                               ; preds = %86, %72
  br label %88

88:                                               ; preds = %87, %71
  br label %89

89:                                               ; preds = %88, %28
  br label %90

90:                                               ; preds = %89
  call void @llvm.lifetime.start.p0(i64 4, ptr %8) #8
  %91 = call i32 @pthread_mutex_unlock(ptr noundef @task_list_lock) #8
  store i32 %91, ptr %8, align 4
  %92 = load i32, ptr %8, align 4
  %93 = icmp ne i32 %92, 0
  br i1 %93, label %94, label %97

94:                                               ; preds = %90
  %95 = load i32, ptr %8, align 4
  %96 = call ptr @__errno_location() #9
  store i32 %95, ptr %96, align 4
  call void (ptr, ...) @fatal_abort(ptr noundef @.str.3, ptr noundef @__func__.jobacct_gather_remove_task) #10
  unreachable

97:                                               ; preds = %90
  call void @llvm.lifetime.end.p0(i64 4, ptr %8) #8
  br label %98

98:                                               ; preds = %97
  br label %99

99:                                               ; preds = %98
  %100 = load ptr, ptr %4, align 8
  store ptr %100, ptr %2, align 8
  store i32 1, ptr %6, align 4
  br label %101

101:                                              ; preds = %99, %14, %11
  call void @llvm.lifetime.end.p0(i64 8, ptr %5) #8
  call void @llvm.lifetime.end.p0(i64 8, ptr %4) #8
  %102 = load ptr, ptr %2, align 8
  ret ptr %102
}