; Function Attrs: nounwind uwtable
define dso_local ptr @jobacct_gather_remove_task(i32 noundef %0) local_unnamed_addr #0 {
  %2 = load i32, ptr @plugin_inited, align 4
  %3 = icmp eq i32 %2, 1
  br i1 %3, label %41, label %4

4:                                                ; preds = %1
  tail call fastcc void @_poll_data(i1 noundef zeroext true)
  %5 = tail call i32 @pthread_mutex_lock(ptr noundef nonnull @jobacct_shutdown_mutex) #10
  %.not.i = icmp eq i32 %5, 0
  br i1 %.not.i, label %8, label %6

6:                                                ; preds = %4
  %7 = tail call ptr @__errno_location() #11
  store i32 %5, ptr %7, align 4
  tail call void (ptr, ...) @fatal_abort(ptr noundef nonnull @.str.1, ptr noundef nonnull @__func__._jobacct_shutdown_test) #12
  unreachable

8:                                                ; preds = %4
  %.b.i = load i1, ptr @jobacct_shutdown, align 1
  %9 = tail call i32 @pthread_mutex_unlock(ptr noundef nonnull @jobacct_shutdown_mutex) #10
  %.not6.i = icmp eq i32 %9, 0
  br i1 %.not6.i, label %_jobacct_shutdown_test.exit, label %10

10:                                               ; preds = %8
  %11 = tail call ptr @__errno_location() #11
  store i32 %9, ptr %11, align 4
  tail call void (ptr, ...) @fatal_abort(ptr noundef nonnull @.str.3, ptr noundef nonnull @__func__._jobacct_shutdown_test) #12
  unreachable

_jobacct_shutdown_test.exit:                      ; preds = %8
  br i1 %.b.i, label %12, label %41

12:                                               ; preds = %_jobacct_shutdown_test.exit
  %13 = tail call i32 @pthread_mutex_lock(ptr noundef nonnull @task_list_lock) #10
  %.not = icmp eq i32 %13, 0
  br i1 %.not, label %16, label %14

14:                                               ; preds = %12
  %15 = tail call ptr @__errno_location() #11
  store i32 %13, ptr %15, align 4
  tail call void (ptr, ...) @fatal_abort(ptr noundef nonnull @.str.1, ptr noundef nonnull @__func__.jobacct_gather_remove_task) #12
  unreachable

16:                                               ; preds = %12
  %17 = load ptr, ptr @task_list, align 8
  %.not23 = icmp eq ptr %17, null
  br i1 %.not23, label %18, label %20

18:                                               ; preds = %16
  %19 = tail call i32 (ptr, ...) @error(ptr noundef nonnull @.str.19) #10
  br label %37

20:                                               ; preds = %16
  %21 = tail call ptr @list_iterator_create(ptr noundef nonnull %17) #10
  %.not25 = icmp eq i32 %0, 0
  br i1 %.not25, label %.split.us, label %.split

.split.us:                                        ; preds = %20
  %22 = tail call ptr @list_next(ptr noundef %21) #10
  %.not24.us = icmp eq ptr %22, null
  br i1 %.not24.us, label %.split30.us.thread, label %.split32.us

.split30.us.thread:                               ; preds = %.split.us
  tail call void @list_iterator_destroy(ptr noundef %21) #10
  br label %37

.split:                                           ; preds = %20, %24
  %23 = tail call ptr @list_next(ptr noundef %21) #10
  %.not24 = icmp eq ptr %23, null
  br i1 %.not24, label %.split30.us, label %24

24:                                               ; preds = %.split
  %25 = load i32, ptr %23, align 8
  %26 = icmp eq i32 %25, %0
  br i1 %26, label %.split32.us, label %.split, !llvm.loop !13

.split32.us:                                      ; preds = %24, %.split.us
  %.us-phi = phi ptr [ %22, %.split.us ], [ %23, %24 ]
  %27 = tail call ptr @list_remove(ptr noundef %21) #10
  tail call void @list_iterator_destroy(ptr noundef %21) #10
  %28 = tail call i32 @get_log_level() #10
  %29 = icmp sgt i32 %28, 5
  br i1 %29, label %30, label %37

30:                                               ; preds = %.split32.us
  %31 = getelementptr inbounds nuw i8, ptr %.us-phi, i64 256
  %32 = load i32, ptr %31, align 8
  %33 = load i32, ptr %.us-phi, align 8
  tail call void (i32, ptr, ...) @log_var(i32 noundef 6, ptr noundef nonnull @.str.21, i32 noundef %32, i32 noundef %33) #10
  br label %37

.split30.us:                                      ; preds = %.split
  tail call void @list_iterator_destroy(ptr noundef %21) #10
  %34 = tail call i32 @get_log_level() #10
  %35 = icmp sgt i32 %34, 5
  br i1 %35, label %36, label %37

36:                                               ; preds = %.split30.us
  tail call void (i32, ptr, ...) @log_var(i32 noundef 6, ptr noundef nonnull @.str.22, i32 noundef %0) #10
  br label %37

37:                                               ; preds = %.split30.us.thread, %18, %36, %.split30.us, %.split32.us, %30
  %.016 = phi ptr [ %.us-phi, %30 ], [ %.us-phi, %.split32.us ], [ null, %36 ], [ null, %.split30.us ], [ null, %18 ], [ null, %.split30.us.thread ]
  %38 = tail call i32 @pthread_mutex_unlock(ptr noundef nonnull @task_list_lock) #10
  %.not27 = icmp eq i32 %38, 0
  br i1 %.not27, label %41, label %39

39:                                               ; preds = %37
  %40 = tail call ptr @__errno_location() #11
  store i32 %38, ptr %40, align 4
  tail call void (ptr, ...) @fatal_abort(ptr noundef nonnull @.str.3, ptr noundef nonnull @__func__.jobacct_gather_remove_task) #12
  unreachable

41:                                               ; preds = %37, %_jobacct_shutdown_test.exit, %1
  %.0 = phi ptr [ null, %1 ], [ null, %_jobacct_shutdown_test.exit ], [ %.016, %37 ]
  ret ptr %.0
}